target datalayout = "e-m:e-p270:32:32-p271:32:32-p272:64:64-i64:64-i128:128-f80:128-n8:16:32:64-S128"
target triple = "x86_64-unknown-linux-gnu"

%"struct.icu_75::number::impl::RangeMacroProps" = type { [8 x i8], %"class.icu_75::number::UnlocalizedNumberFormatter", %"class.icu_75::number::UnlocalizedNumberFormatter", i8, i32, i32, [4 x i8], %"class.icu_75::Locale" }
%"class.icu_75::number::UnlocalizedNumberFormatter" = type <{ %"class.icu_75::number::NumberFormatterSettings", [8 x i8] }>
%"class.icu_75::number::NumberFormatterSettings" = type { %"struct.icu_75::number::impl::MacroProps" }
%"struct.icu_75::number::impl::MacroProps" = type { [4 x i8], %"class.icu_75::number::Notation", %"class.icu_75::MeasureUnit", %"class.icu_75::MeasureUnit", %"class.icu_75::number::Precision", i32, %"class.icu_75::number::impl::Grouper", %"class.icu_75::number::impl::Padder", %"class.icu_75::number::IntegerWidth", %"class.icu_75::number::impl::SymbolsWrapper", i32, i32, i8, i32, %"class.icu_75::number::Scale", %"class.icu_75::number::impl::StringProp", %"class.icu_75::number::impl::StringProp", ptr, ptr, i32, [4 x i8], %"class.icu_75::Locale" }
%"class.icu_75::number::Notation" = type { i32, %"union.icu_75::number::Notation::NotationUnion" }
%"union.icu_75::number::Notation::NotationUnion" = type { %"struct.icu_75::number::Notation::NotationUnion::ScientificSettings" }
%"struct.icu_75::number::Notation::NotationUnion::ScientificSettings" = type { i8, i8, i16, i32 }
%"class.icu_75::MeasureUnit" = type <{ %"class.icu_75::UObject", ptr, i16, i8, [5 x i8] }>
%"class.icu_75::UObject" = type { ptr }
%"class.icu_75::number::Precision" = type <{ i32, [4 x i8], %"union.icu_75::number::Precision::PrecisionUnion", i32, [4 x i8] }>
%"union.icu_75::number::Precision::PrecisionUnion" = type { %"struct.icu_75::number::Precision::PrecisionUnion::IncrementSettings" }
%"struct.icu_75::number::Precision::PrecisionUnion::IncrementSettings" = type { i64, i16, i16 }
%"class.icu_75::number::impl::Grouper" = type { i16, i16, i16, i32 }
%"class.icu_75::number::impl::Padder" = type { i32, %union.anon }
%union.anon = type { %struct.anon }
%struct.anon = type { i32, i32 }
%"class.icu_75::number::IntegerWidth" = type <{ %union.anon.0, i8, [3 x i8] }>
%union.anon.0 = type { i32, [4 x i8] }
%"class.icu_75::number::impl::SymbolsWrapper" = type { i32, %union.anon.2 }
%union.anon.2 = type { ptr }
%"class.icu_75::number::Scale" = type <{ i32, [4 x i8], ptr, i32, [4 x i8] }>
%"class.icu_75::number::impl::StringProp" = type { ptr, i16, i32 }
%"class.icu_75::Locale" = type <{ %"class.icu_75::UObject", [12 x i8], [6 x i8], [4 x i8], [2 x i8], i32, [4 x i8], ptr, [157 x i8], [3 x i8], ptr, i8, [7 x i8] }>
%"class.icu_75::number::NumberRangeFormatterSettings" = type { %"struct.icu_75::number::impl::RangeMacroProps" }

; Function Attrs: mustprogress uwtable
define linkonce_odr noundef nonnull align 8 dereferenceable(1208) ptr @_ZN6icu_756number4impl15RangeMacroPropsaSERKS2_(ptr noundef nonnull align 8 dereferenceable(1208) %this, ptr noundef nonnull align 8 dereferenceable(1208) %0) #1 comdat align 2 {
entry:
  %this.addr = alloca ptr, align 8
  %.addr = alloca ptr, align 8
  store ptr %this, ptr %this.addr, align 8
  store ptr %0, ptr %.addr, align 8
  %this1 = load ptr, ptr %this.addr, align 8
  %formatter1 = getelementptr inbounds %"struct.icu_75::number::impl::RangeMacroProps", ptr %this1, i32 0, i32 1
  %1 = load ptr, ptr %.addr, align 8
  %formatter12 = getelementptr inbounds %"struct.icu_75::number::impl::RangeMacroProps", ptr %1, i32 0, i32 1
  %call = call noundef nonnull align 8 dereferenceable(473) ptr @_ZN6icu_756number26UnlocalizedNumberFormatteraSERKS1_(ptr noundef nonnull align 8 dereferenceable(473) %formatter1, ptr noundef nonnull align 8 dereferenceable(473) %formatter12)
  %formatter2 = getelementptr inbounds %"struct.icu_75::number::impl::RangeMacroProps", ptr %this1, i32 0, i32 2
  %2 = load ptr, ptr %.addr, align 8
  %formatter23 = getelementptr inbounds %"struct.icu_75::number::impl::RangeMacroProps", ptr %2, i32 0, i32 2
  %call4 = call noundef nonnull align 8 dereferenceable(473) ptr @_ZN6icu_756number26UnlocalizedNumberFormatteraSERKS1_(ptr noundef nonnull align 8 dereferenceable(473) %formatter2, ptr noundef nonnull align 8 dereferenceable(473) %formatter23)
  %singleFormatter = getelementptr inbounds %"struct.icu_75::number::impl::RangeMacroProps", ptr %this1, i32 0, i32 3
  %3 = load ptr, ptr %.addr, align 8
  %singleFormatter5 = getelementptr inbounds %"struct.icu_75::number::impl::RangeMacroProps", ptr %3, i32 0, i32 3
  call void @llvm.memcpy.p0.p0.i64(ptr align 8 %singleFormatter, ptr align 8 %singleFormatter5, i64 12, i1 false)
  %locale = getelementptr inbounds %"struct.icu_75::number::impl::RangeMacroProps", ptr %this1, i32 0, i32 7
  %4 = load ptr, ptr %.addr, align 8
  %locale6 = getelementptr inbounds %"struct.icu_75::number::impl::RangeMacroProps", ptr %4, i32 0, i32 7
  %call7 = call noundef nonnull align 8 dereferenceable(217) ptr @_ZN6icu_756LocaleaSERKS0_(ptr noundef nonnull align 8 dereferenceable(217) %locale, ptr noundef nonnull align 8 dereferenceable(217) %locale6)
  ret ptr %this1
}

; Function Attrs: mustprogress uwtable
define linkonce_odr noundef nonnull align 8 dereferenceable(1208) ptr @_ZN6icu_756number28NumberRangeFormatterSettingsINS0_31UnlocalizedNumberRangeFormatterEEaSERKS3_(ptr noundef nonnull align 8 dereferenceable(1208) %this, ptr noundef nonnull align 8 dereferenceable(1208) %0) #1 comdat align 2 {
entry:
  %this.addr = alloca ptr, align 8
  %.addr = alloca ptr, align 8
  store ptr %this, ptr %this.addr, align 8
  store ptr %0, ptr %.addr, align 8
  %this1 = load ptr, ptr %this.addr, align 8
  %fMacros = getelementptr inbounds %"class.icu_75::number::NumberRangeFormatterSettings", ptr %this1, i32 0, i32 0
  %1 = load ptr, ptr %.addr, align 8
  %fMacros2 = getelementptr inbounds %"class.icu_75::number::NumberRangeFormatterSettings", ptr %1, i32 0, i32 0
  %call = call noundef nonnull align 8 dereferenceable(1208) ptr @_ZN6icu_756number4impl15RangeMacroPropsaSERKS2_(ptr noundef nonnull align 8 dereferenceable(1208) %fMacros, ptr noundef nonnull align 8 dereferenceable(1208) %fMacros2)
  ret ptr %this1
}

; Function Attrs: mustprogress uwtable
define noundef nonnull align 8 dereferenceable(1209) ptr @_ZN6icu_756number31UnlocalizedNumberRangeFormatteraSERKS1_(ptr noundef nonnull align 8 dereferenceable(1209) %this, ptr noundef nonnull align 8 dereferenceable(1209) %other) #1 align 2 {
entry:
  %this.addr = alloca ptr, align 8
  %other.addr = alloca ptr, align 8
  store ptr %this, ptr %this.addr, align 8
  store ptr %other, ptr %other.addr, align 8
  %this1 = load ptr, ptr %this.addr, align 8
  %0 = load ptr, ptr %other.addr, align 8
  %call = call noundef nonnull align 8 dereferenceable(1208) ptr @_ZN6icu_756number28NumberRangeFormatterSettingsINS0_31UnlocalizedNumberRangeFormatterEEaSERKS3_(ptr noundef nonnull align 8 dereferenceable(1208) %this1, ptr noundef nonnull align 8 dereferenceable(1208) %0)
  ret ptr %this1
}