; Function Attrs: mustprogress uwtable
define noundef nonnull align 8 dereferenceable(1209) ptr @_ZN6icu_756number31UnlocalizedNumberRangeFormatteraSERKS1_(ptr noundef nonnull returned align 8 dereferenceable(1209) %this, ptr noundef nonnull align 8 dereferenceable(1209) %other) local_unnamed_addr #1 align 2 {
entry:
  %formatter1.i.i = getelementptr inbounds i8, ptr %this, i64 8
  %formatter12.i.i = getelementptr inbounds i8, ptr %other, i64 8
  %call.i.i = tail call noundef nonnull align 8 dereferenceable(473) ptr @_ZN6icu_756number26UnlocalizedNumberFormatteraSERKS1_(ptr noundef nonnull align 8 dereferenceable(473) %formatter1.i.i, ptr noundef nonnull align 8 dereferenceable(473) %formatter12.i.i)
  %formatter2.i.i = getelementptr inbounds i8, ptr %this, i64 488
  %formatter23.i.i = getelementptr inbounds i8, ptr %other, i64 488
  %call4.i.i = tail call noundef nonnull align 8 dereferenceable(473) ptr @_ZN6icu_756number26UnlocalizedNumberFormatteraSERKS1_(ptr noundef nonnull align 8 dereferenceable(473) %formatter2.i.i, ptr noundef nonnull align 8 dereferenceable(473) %formatter23.i.i)
  %singleFormatter.i.i = getelementptr inbounds i8, ptr %this, i64 968
  %singleFormatter5.i.i = getelementptr inbounds i8, ptr %other, i64 968
  tail call void @llvm.memcpy.p0.p0.i64(ptr noundef nonnull align 8 dereferenceable(12) %singleFormatter.i.i, ptr noundef nonnull align 8 dereferenceable(12) %singleFormatter5.i.i, i64 12, i1 false)
  %locale.i.i = getelementptr inbounds i8, ptr %this, i64 984
  %locale6.i.i = getelementptr inbounds i8, ptr %other, i64 984
  %call7.i.i = tail call noundef nonnull align 8 dereferenceable(217) ptr @_ZN6icu_756LocaleaSERKS0_(ptr noundef nonnull align 8 dereferenceable(217) %locale.i.i, ptr noundef nonnull align 8 dereferenceable(217) %locale6.i.i)
  ret ptr %this
}